target datalayout = "e-m:e-p270:32:32-p271:32:32-p272:64:64-i64:64-i128:128-f80:128-n8:16:32:64-S128"
target triple = "x86_64-pc-linux-gnu"

%struct._grid = type { ptr, ptr, ptr, i32, ptr, ptr }

@_grid = internal global %struct._grid zeroinitializer, align 8
@Dtoset = external global ptr, align 8
@gridDisc = internal global { i32, i32, i32, [4 x i8], ptr, ptr, ptr } { i32 0, i32 8, i32 16, [4 x i8] zeroinitializer, ptr @newCell, ptr null, ptr @ijcmpf }, align 8

; Function Attrs: nounwind uwtable
define ptr @mkGrid(i32 noundef %0) #0 {
  %2 = alloca i32, align 4
  %3 = alloca ptr, align 8
  store i32 %0, ptr %2, align 4, !tbaa !3
  call void @llvm.lifetime.start.p0(i64 8, ptr %3) #9
  store ptr @_grid, ptr %3, align 8, !tbaa !7
  %4 = load ptr, ptr %3, align 8, !tbaa !7
  call void @llvm.memset.p0.i64(ptr align 8 %4, i8 0, i64 48, i1 false)
  %5 = load ptr, ptr @Dtoset, align 8, !tbaa !10
  %6 = call ptr @dtopen(ptr noundef @gridDisc, ptr noundef %5)
  %7 = load ptr, ptr %3, align 8, !tbaa !7
  %8 = getelementptr inbounds nuw %struct._grid, ptr %7, i32 0, i32 0
  store ptr %6, ptr %8, align 8, !tbaa !11
  %9 = load i32, ptr %2, align 4, !tbaa !3
  %10 = call ptr @newBlock(i32 noundef %9)
  %11 = load ptr, ptr %3, align 8, !tbaa !7
  %12 = getelementptr inbounds nuw %struct._grid, ptr %11, i32 0, i32 1
  store ptr %10, ptr %12, align 8, !tbaa !16
  %13 = load ptr, ptr %3, align 8, !tbaa !7
  call void @llvm.lifetime.end.p0(i64 8, ptr %3) #9
  ret ptr %13
}