; Function Attrs: nounwind uwtable
define noundef nonnull ptr @mkGrid(i32 noundef %0) local_unnamed_addr #0 {
  tail call void @llvm.memset.p0.i64(ptr noundef nonnull align 8 dereferenceable(48) @_grid, i8 0, i64 48, i1 false)
  %2 = load ptr, ptr @Dtoset, align 8, !tbaa !3
  %3 = tail call ptr @dtopen(ptr noundef nonnull @gridDisc, ptr noundef %2) #13
  store ptr %3, ptr @_grid, align 8, !tbaa !7
  %4 = tail call fastcc ptr @newBlock(i32 noundef %0)
  store ptr %4, ptr getelementptr inbounds nuw (i8, ptr @_grid, i64 8), align 8, !tbaa !13
  ret ptr @_grid
}